target datalayout = "e-m:e-p270:32:32-p271:32:32-p272:64:64-i64:64-i128:128-f80:128-n8:16:32:64-S128"
target triple = "x86_64-pc-linux-gnu"

@.str.21 = private unnamed_addr constant [19 x i8] c"too many arguments\00", align 1

; Function Attrs: nounwind uwtable
define internal void @aux_lines(ptr noundef %0, i32 noundef %1) #0 {
  %3 = alloca ptr, align 8
  %4 = alloca i32, align 4
  %5 = alloca i32, align 4
  store ptr %0, ptr %3, align 8, !tbaa !4
  store i32 %1, ptr %4, align 4, !tbaa !18
  call void @llvm.lifetime.start.p0(i64 4, ptr %5) #8
  %6 = load ptr, ptr %3, align 8, !tbaa !4
  %7 = call i32 @lua_gettop(ptr noundef %6)
  %8 = sub nsw i32 %7, 1
  store i32 %8, ptr %5, align 4, !tbaa !18
  %9 = load i32, ptr %5, align 4, !tbaa !18
  %10 = icmp sle i32 %9, 250
  %11 = zext i1 %10 to i32
  %12 = icmp ne i32 %11, 0
  %13 = zext i1 %12 to i32
  %14 = sext i32 %13 to i64
  %15 = call i64 @llvm.expect.i64(i64 %14, i64 1)
  %16 = icmp ne i64 %15, 0
  br i1 %16, label %20, label %17

17:                                               ; preds = %2
  %18 = load ptr, ptr %3, align 8, !tbaa !4
  %19 = call i32 @luaL_argerror(ptr noundef %18, i32 noundef 252, ptr noundef @.str.21)
  br label %20

20:                                               ; preds = %17, %2
  %21 = load ptr, ptr %3, align 8, !tbaa !4
  call void @lua_pushvalue(ptr noundef %21, i32 noundef 1)
  %22 = load ptr, ptr %3, align 8, !tbaa !4
  %23 = load i32, ptr %5, align 4, !tbaa !18
  %24 = sext i32 %23 to i64
  call void @lua_pushinteger(ptr noundef %22, i64 noundef %24)
  %25 = load ptr, ptr %3, align 8, !tbaa !4
  %26 = load i32, ptr %4, align 4, !tbaa !18
  call void @lua_pushboolean(ptr noundef %25, i32 noundef %26)
  %27 = load ptr, ptr %3, align 8, !tbaa !4
  call void @lua_rotate(ptr noundef %27, i32 noundef 2, i32 noundef 3)
  %28 = load ptr, ptr %3, align 8, !tbaa !4
  %29 = load i32, ptr %5, align 4, !tbaa !18
  %30 = add nsw i32 3, %29
  call void @lua_pushcclosure(ptr noundef %28, ptr noundef @io_readline, i32 noundef %30)
  call void @llvm.lifetime.end.p0(i64 4, ptr %5) #8
  ret void
}