; Function Attrs: nounwind uwtable
define internal fastcc void @aux_lines(ptr noundef %0, i32 noundef range(i32 0, 2) %1) unnamed_addr #0 {
  %3 = tail call i32 @lua_gettop(ptr noundef %0) #9
  %4 = icmp slt i32 %3, 252
  br i1 %4, label %7, label %5, !prof !18

5:                                                ; preds = %2
  %6 = tail call i32 @luaL_argerror(ptr noundef %0, i32 noundef 252, ptr noundef nonnull @.str.21) #9
  br label %7

7:                                                ; preds = %5, %2
  %8 = add nsw i32 %3, -1
  tail call void @lua_pushvalue(ptr noundef %0, i32 noundef 1) #9
  %9 = sext i32 %8 to i64
  tail call void @lua_pushinteger(ptr noundef %0, i64 noundef %9) #9
  tail call void @lua_pushboolean(ptr noundef %0, i32 noundef %1) #9
  tail call void @lua_rotate(ptr noundef %0, i32 noundef 2, i32 noundef 3) #9
  %10 = add nsw i32 %3, 2
  tail call void @lua_pushcclosure(ptr noundef %0, ptr noundef nonnull @io_readline, i32 noundef %10) #9
  ret void
}